target datalayout = "e-m:e-p270:32:32-p271:32:32-p272:64:64-i64:64-i128:128-f80:128-n8:16:32:64-S128"
target triple = "x86_64-pc-linux-gnu"

@hf_h265_slice_pic_parameter_set_id = internal global i32 0, align 4
@hf_h265_slice_segment_address = internal global i32 0, align 4
@hf_h265_slice_type = internal global i32 0, align 4
@pic_width_in_luma_samples = internal global i32 0, align 4
@pic_height_in_luma_samples = internal global i32 0, align 4
@log2_min_luma_coding_block_size_minus3 = internal global i32 0, align 4
@log2_diff_max_min_luma_coding_block_size = internal global i32 0, align 4
@dependent_slice_segments_enabled_flag = internal global i8 0, align 1
@num_extra_slice_header_bits = internal global i32 0, align 4
@.str.864 = private unnamed_addr constant [9 x i8] c"BLA_W_LP\00", align 1
@.str.871 = private unnamed_addr constant [15 x i8] c"RSV_IRAP_VCL23\00", align 1

; Function Attrs: null_pointer_is_valid sspstrong uwtable
define internal i32 @dissect_h265_slice_segment_header(ptr noundef %0, ptr noundef %1, ptr noundef %2, i32 noundef %3, i8 noundef zeroext %4) #0 {
  %6 = alloca ptr, align 8
  %7 = alloca ptr, align 8
  %8 = alloca ptr, align 8
  %9 = alloca i32, align 4
  %10 = alloca i8, align 1
  %11 = alloca i8, align 1
  %12 = alloca i8, align 1
  %13 = alloca i32, align 4
  %14 = alloca i32, align 4
  %15 = alloca i32, align 4
  %16 = alloca double, align 8
  %17 = alloca double, align 8
  %18 = alloca double, align 8
  %19 = alloca i32, align 4
  %20 = alloca i32, align 4
  store ptr %0, ptr %6, align 8
  store ptr %1, ptr %7, align 8
  store ptr %2, ptr %8, align 8
  store i32 %3, ptr %9, align 4
  store i8 %4, ptr %10, align 1
  call void @llvm.lifetime.start.p0(i64 1, ptr %11) #9
  store i8 0, ptr %11, align 1
  call void @llvm.lifetime.start.p0(i64 1, ptr %12) #9
  store i8 0, ptr %12, align 1
  call void @llvm.lifetime.start.p0(i64 4, ptr %13) #9
  %21 = load i32, ptr @log2_min_luma_coding_block_size_minus3, align 4
  %22 = add i32 %21, 3
  store i32 %22, ptr %13, align 4
  call void @llvm.lifetime.start.p0(i64 4, ptr %14) #9
  %23 = load i32, ptr %13, align 4
  %24 = load i32, ptr @log2_diff_max_min_luma_coding_block_size, align 4
  %25 = add i32 %23, %24
  store i32 %25, ptr %14, align 4
  call void @llvm.lifetime.start.p0(i64 4, ptr %15) #9
  %26 = load i32, ptr %14, align 4
  %27 = shl i32 1, %26
  store i32 %27, ptr %15, align 4
  call void @llvm.lifetime.start.p0(i64 8, ptr %16) #9
  %28 = load i32, ptr @pic_width_in_luma_samples, align 4
  %29 = load i32, ptr %15, align 4
  %30 = udiv i32 %28, %29
  %31 = uitofp i32 %30 to double
  %32 = call double @llvm.ceil.f64(double %31)
  store double %32, ptr %16, align 8
  call void @llvm.lifetime.start.p0(i64 8, ptr %17) #9
  %33 = load i32, ptr @pic_height_in_luma_samples, align 4
  %34 = load i32, ptr %15, align 4
  %35 = udiv i32 %33, %34
  %36 = uitofp i32 %35 to double
  %37 = call double @llvm.ceil.f64(double %36)
  store double %37, ptr %17, align 8
  call void @llvm.lifetime.start.p0(i64 8, ptr %18) #9
  %38 = load double, ptr %16, align 8
  %39 = load double, ptr %17, align 8
  %40 = fmul double %38, %39
  store double %40, ptr %18, align 8
  call void @llvm.lifetime.start.p0(i64 4, ptr %19) #9
  %41 = load double, ptr %18, align 8
  %42 = call double @log2(double noundef %41) #9
  %43 = call double @llvm.ceil.f64(double %42)
  %44 = fptoui double %43 to i32
  store i32 %44, ptr %19, align 4
  call void @llvm.lifetime.start.p0(i64 4, ptr %20) #9
  %45 = load ptr, ptr %7, align 8
  %46 = load i32, ptr %9, align 4
  %47 = call zeroext i8 @tvb_get_bits8(ptr noundef %45, i32 noundef %46, i32 noundef 1)
  %48 = icmp ne i8 %47, 0
  %49 = zext i1 %48 to i8
  store i8 %49, ptr %11, align 1
  %50 = load i32, ptr %9, align 4
  %51 = add i32 %50, 1
  store i32 %51, ptr %9, align 4
  %52 = load i8, ptr %10, align 1
  %53 = zext i8 %52 to i32
  %54 = call i32 @str_to_val(ptr noundef @.str.864, ptr noundef @h265_type_summary_values, i32 noundef 16)
  %55 = icmp uge i32 %53, %54
  br i1 %55, label %56, label %64

56:                                               ; preds = %5
  %57 = load i8, ptr %10, align 1
  %58 = zext i8 %57 to i32
  %59 = call i32 @str_to_val(ptr noundef @.str.871, ptr noundef @h265_type_summary_values, i32 noundef 23)
  %60 = icmp ule i32 %58, %59
  br i1 %60, label %61, label %64

61:                                               ; preds = %56
  %62 = load i32, ptr %9, align 4
  %63 = add i32 %62, 1
  store i32 %63, ptr %9, align 4
  br label %64

64:                                               ; preds = %61, %56, %5
  %65 = load ptr, ptr %6, align 8
  %66 = load i32, ptr @hf_h265_slice_pic_parameter_set_id, align 4
  %67 = load ptr, ptr %7, align 8
  %68 = load ptr, ptr %8, align 8
  %69 = call i32 @dissect_h265_exp_golomb_code(ptr noundef %65, i32 noundef %66, ptr noundef %67, ptr noundef %68, ptr noundef %9, i32 noundef 0)
  %70 = load i8, ptr %11, align 1, !range !11, !noundef !12
  %71 = trunc i8 %70 to i1
  br i1 %71, label %93, label %72

72:                                               ; preds = %64
  %73 = load i8, ptr @dependent_slice_segments_enabled_flag, align 1, !range !11, !noundef !12
  %74 = trunc i8 %73 to i1
  br i1 %74, label %75, label %83

75:                                               ; preds = %72
  %76 = load ptr, ptr %7, align 8
  %77 = load i32, ptr %9, align 4
  %78 = call zeroext i8 @tvb_get_bits8(ptr noundef %76, i32 noundef %77, i32 noundef 1)
  %79 = icmp ne i8 %78, 0
  %80 = zext i1 %79 to i8
  store i8 %80, ptr %12, align 1
  %81 = load i32, ptr %9, align 4
  %82 = add i32 %81, 1
  store i32 %82, ptr %9, align 4
  br label %83

83:                                               ; preds = %75, %72
  %84 = load ptr, ptr %6, align 8
  %85 = load i32, ptr @hf_h265_slice_segment_address, align 4
  %86 = load ptr, ptr %7, align 8
  %87 = load i32, ptr %9, align 4
  %88 = load i32, ptr %19, align 4
  %89 = call ptr @proto_tree_add_bits_item(ptr noundef %84, i32 noundef %85, ptr noundef %86, i32 noundef %87, i32 noundef %88, i32 noundef 0)
  %90 = load i32, ptr %9, align 4
  %91 = load i32, ptr %19, align 4
  %92 = add i32 %90, %91
  store i32 %92, ptr %9, align 4
  br label %93

93:                                               ; preds = %83, %64
  %94 = load i8, ptr %12, align 1, !range !11, !noundef !12
  %95 = trunc i8 %94 to i1
  br i1 %95, label %113, label %96

96:                                               ; preds = %93
  store i32 0, ptr %20, align 4
  br label %97

97:                                               ; preds = %104, %96
  %98 = load i32, ptr %20, align 4
  %99 = load i32, ptr @num_extra_slice_header_bits, align 4
  %100 = icmp ult i32 %98, %99
  br i1 %100, label %101, label %107

101:                                              ; preds = %97
  %102 = load i32, ptr %9, align 4
  %103 = add i32 %102, 1
  store i32 %103, ptr %9, align 4
  br label %104

104:                                              ; preds = %101
  %105 = load i32, ptr %20, align 4
  %106 = add i32 %105, 1
  store i32 %106, ptr %20, align 4
  br label %97, !llvm.loop !49

107:                                              ; preds = %97
  %108 = load ptr, ptr %6, align 8
  %109 = load i32, ptr @hf_h265_slice_type, align 4
  %110 = load ptr, ptr %7, align 8
  %111 = load ptr, ptr %8, align 8
  %112 = call i32 @dissect_h265_exp_golomb_code(ptr noundef %108, i32 noundef %109, ptr noundef %110, ptr noundef %111, ptr noundef %9, i32 noundef 0)
  br label %113

113:                                              ; preds = %107, %93
  %114 = load i32, ptr %9, align 4
  call void @llvm.lifetime.end.p0(i64 4, ptr %20) #9
  call void @llvm.lifetime.end.p0(i64 4, ptr %19) #9
  call void @llvm.lifetime.end.p0(i64 8, ptr %18) #9
  call void @llvm.lifetime.end.p0(i64 8, ptr %17) #9
  call void @llvm.lifetime.end.p0(i64 8, ptr %16) #9
  call void @llvm.lifetime.end.p0(i64 4, ptr %15) #9
  call void @llvm.lifetime.end.p0(i64 4, ptr %14) #9
  call void @llvm.lifetime.end.p0(i64 4, ptr %13) #9
  call void @llvm.lifetime.end.p0(i64 1, ptr %12) #9
  call void @llvm.lifetime.end.p0(i64 1, ptr %11) #9
  ret i32 %114
}

; Function Attrs: null_pointer_is_valid sspstrong uwtable
define internal void @dissect_h265_slice_segment_layer_rbsp(ptr noundef %0, ptr noundef %1, ptr noundef %2, i32 noundef %3, i8 noundef zeroext %4) #0 {
  %6 = alloca ptr, align 8
  %7 = alloca ptr, align 8
  %8 = alloca ptr, align 8
  %9 = alloca i32, align 4
  %10 = alloca i8, align 1
  %11 = alloca i32, align 4
  store ptr %0, ptr %6, align 8
  store ptr %1, ptr %7, align 8
  store ptr %2, ptr %8, align 8
  store i32 %3, ptr %9, align 4
  store i8 %4, ptr %10, align 1
  call void @llvm.lifetime.start.p0(i64 4, ptr %11) #9
  %12 = load i32, ptr %9, align 4
  %13 = shl i32 %12, 3
  store i32 %13, ptr %11, align 4
  %14 = load ptr, ptr %6, align 8
  %15 = load ptr, ptr %7, align 8
  %16 = load ptr, ptr %8, align 8
  %17 = load i32, ptr %11, align 4
  %18 = load i8, ptr %10, align 1
  %19 = call i32 @dissect_h265_slice_segment_header(ptr noundef %14, ptr noundef %15, ptr noundef %16, i32 noundef %17, i8 noundef zeroext %18)
  call void @llvm.lifetime.end.p0(i64 4, ptr %11) #9
  ret void
}