; Function Attrs: null_pointer_is_valid sspstrong uwtable
define internal fastcc void @dissect_h265_slice_segment_layer_rbsp(ptr noundef %0, ptr noundef %1, ptr noundef readonly captures(none) %2, i8 noundef zeroext range(i8 0, 64) %3) unnamed_addr #0 {
  %5 = alloca i32, align 4
  call void @llvm.lifetime.start.p0(i64 4, ptr nonnull %5)
  %6 = load i32, ptr @log2_min_luma_coding_block_size_minus3, align 4
  %7 = add i32 %6, 3
  %8 = load i32, ptr @log2_diff_max_min_luma_coding_block_size, align 4
  %9 = add i32 %7, %8
  %10 = load i32, ptr @pic_width_in_luma_samples, align 4
  %11 = lshr i32 %10, %9
  %12 = uitofp i32 %11 to double
  %13 = load i32, ptr @pic_height_in_luma_samples, align 4
  %14 = lshr i32 %13, %9
  %15 = uitofp i32 %14 to double
  %16 = fmul double %12, %15
  %17 = tail call double @log2(double noundef %16) #10
  %18 = tail call double @llvm.ceil.f64(double %17)
  %19 = fptoui double %18 to i32
  %20 = tail call zeroext i8 @tvb_get_bits8(ptr noundef %1, i32 noundef 0, i32 noundef 1)
  %.not.i = icmp eq i8 %20, 0
  store i32 1, ptr %5, align 4
  %21 = zext nneg i8 %3 to i32
  %22 = tail call i32 @str_to_val(ptr noundef nonnull @.str.864, ptr noundef nonnull @h265_type_summary_values, i32 noundef 16)
  %.not26.i = icmp ugt i32 %22, %21
  br i1 %.not26.i, label %26, label %23

23:                                               ; preds = %4
  %24 = tail call i32 @str_to_val(ptr noundef nonnull @.str.871, ptr noundef nonnull @h265_type_summary_values, i32 noundef 23)
  %.not27.i = icmp ult i32 %24, %21
  br i1 %.not27.i, label %26, label %25

25:                                               ; preds = %23
  store i32 2, ptr %5, align 4
  br label %26

26:                                               ; preds = %25, %23, %4
  %27 = load i32, ptr @hf_h265_slice_pic_parameter_set_id, align 4
  %28 = call fastcc i32 @dissect_h265_exp_golomb_code(ptr noundef %0, i32 noundef %27, ptr noundef %1, ptr noundef readonly %2, ptr noundef nonnull %5, i32 noundef 0)
  br i1 %.not.i, label %29, label %..critedge_crit_edge.i

..critedge_crit_edge.i:                           ; preds = %26
  %.promoted.pre.i = load i32, ptr %5, align 4
  br label %.critedge.i

29:                                               ; preds = %26
  %30 = load i8, ptr @dependent_slice_segments_enabled_flag, align 1, !range !35, !noundef !36
  %31 = trunc nuw i8 %30 to i1
  br i1 %31, label %32, label %.critedge29.i

32:                                               ; preds = %29
  %33 = load i32, ptr %5, align 4
  %34 = tail call zeroext i8 @tvb_get_bits8(ptr noundef %1, i32 noundef %33, i32 noundef 1)
  %.not30.i = icmp eq i8 %34, 0
  %35 = add i32 %33, 1
  %36 = load i32, ptr @hf_h265_slice_segment_address, align 4
  %37 = tail call ptr @proto_tree_add_bits_item(ptr noundef %0, i32 noundef %36, ptr noundef %1, i32 noundef %35, i32 noundef %19, i32 noundef 0)
  %38 = add i32 %35, %19
  br i1 %.not30.i, label %.critedge.i, label %dissect_h265_slice_segment_header.exit

.critedge29.i:                                    ; preds = %29
  %39 = load i32, ptr @hf_h265_slice_segment_address, align 4
  %40 = load i32, ptr %5, align 4
  %41 = tail call ptr @proto_tree_add_bits_item(ptr noundef %0, i32 noundef %39, ptr noundef %1, i32 noundef %40, i32 noundef %19, i32 noundef 0)
  %42 = add i32 %40, %19
  br label %.critedge.i

.critedge.i:                                      ; preds = %.critedge29.i, %32, %..critedge_crit_edge.i
  %.promoted.i = phi i32 [ %.promoted.pre.i, %..critedge_crit_edge.i ], [ %42, %.critedge29.i ], [ %38, %32 ]
  %43 = load i32, ptr @num_extra_slice_header_bits, align 4
  %44 = add i32 %43, %.promoted.i
  store i32 %44, ptr %5, align 4
  %45 = load i32, ptr @hf_h265_slice_type, align 4
  %46 = call fastcc i32 @dissect_h265_exp_golomb_code(ptr noundef %0, i32 noundef %45, ptr noundef %1, ptr noundef readonly %2, ptr noundef nonnull %5, i32 noundef 0)
  br label %dissect_h265_slice_segment_header.exit

dissect_h265_slice_segment_header.exit:           ; preds = %32, %.critedge.i
  call void @llvm.lifetime.end.p0(i64 4, ptr nonnull %5)
  ret void
}